; Function Attrs: mustprogress nounwind uwtable
define dso_local void @_ZN4node9inspector9TcpHolder8OnClosedEP11uv_handle_s(ptr noundef %handle) #0 align 2 {
entry:
  %isnull = icmp eq ptr %handle, null
  br i1 %isnull, label %delete.end, label %delete.notnull

delete.notnull:                                   ; preds = %entry
  %buffer.i = getelementptr inbounds i8, ptr %handle, i64 264
  %0 = load ptr, ptr %buffer.i, align 8
  %tobool.not.i.i.i.i = icmp eq ptr %0, null
  br i1 %tobool.not.i.i.i.i, label %_ZNSt6vectorIcSaIcEED2Ev.exit.i, label %if.then.i.i.i.i

if.then.i.i.i.i:                                  ; preds = %delete.notnull
  tail call void @_ZdlPv(ptr noundef nonnull %0) #22
  br label %_ZNSt6vectorIcSaIcEED2Ev.exit.i

_ZNSt6vectorIcSaIcEED2Ev.exit.i:                  ; preds = %if.then.i.i.i.i, %delete.notnull
  tail call void @_ZNSaIcED2Ev(ptr noundef nonnull align 1 dereferenceable(1) %buffer.i) #19
  %delegate_.i = getelementptr inbounds i8, ptr %handle, i64 248
  %1 = load ptr, ptr %delegate_.i, align 8
  %cmp.not.i.i = icmp eq ptr %1, null
  br i1 %cmp.not.i.i, label %_ZN4node9inspector9TcpHolderD2Ev.exit, label %_ZNKSt14default_deleteIN4node9inspector15InspectorSocket8DelegateEEclEPS3_.exit.i.i

_ZNKSt14default_deleteIN4node9inspector15InspectorSocket8DelegateEEclEPS3_.exit.i.i: ; preds = %_ZNSt6vectorIcSaIcEED2Ev.exit.i
  %vtable.i.i.i = load ptr, ptr %1, align 8
  %vfn.i.i.i = getelementptr inbounds i8, ptr %vtable.i.i.i, i64 32
  %2 = load ptr, ptr %vfn.i.i.i, align 8
  tail call void %2(ptr noundef nonnull align 8 dereferenceable(8) %1) #19
  br label %_ZN4node9inspector9TcpHolderD2Ev.exit

_ZN4node9inspector9TcpHolderD2Ev.exit:            ; preds = %_ZNSt6vectorIcSaIcEED2Ev.exit.i, %_ZNKSt14default_deleteIN4node9inspector15InspectorSocket8DelegateEEclEPS3_.exit.i.i
  tail call void @_ZdlPv(ptr noundef nonnull %handle) #22
  br label %delete.end

delete.end:                                       ; preds = %_ZN4node9inspector9TcpHolderD2Ev.exit, %entry
  ret void
}